target datalayout = "e-m:e-p270:32:32-p271:32:32-p272:64:64-i64:64-i128:128-f80:128-n8:16:32:64-S128"
target triple = "x86_64-pc-linux-gnu"

%struct.DdManager = type { %struct.DdNode, ptr, ptr, ptr, ptr, ptr, ptr, ptr, i32, i32, double, double, double, i32, i32, i32, i32, i32, i32, ptr, ptr, %struct.DdSubtable, i32, i32, i32, i32, i32, i32, i32, double, i32, i32, i32, ptr, i64, double, i32, ptr, ptr, ptr, ptr, ptr, ptr, ptr, i32, ptr, ptr, ptr, ptr, ptr, ptr, i32, i32, i32, double, i32, i32, i32, i32, double, double, i32, i32, i32, i32, i32, i32, i32, i32, i32, ptr, ptr, i32, i32, i32, i32, i32, i32, ptr, ptr, ptr, ptr, ptr, ptr, ptr, ptr, i32, i64, i64, i64, i32, i64, i64, double, double, double, double, double, double, i32, ptr, ptr, i64 }
%struct.DdNode = type { i32, i32, ptr, %union.anon, i64 }
%union.anon = type { %struct.DdChildren }
%struct.DdChildren = type { ptr, ptr }
%struct.DdSubtable = type { ptr, i32, i32, i32, i32, i32, i32, i32, i32, i32, i32, i32 }

; Function Attrs: nounwind uwtable
define ptr @Bbr_bddComputeRangeCube(ptr noundef %0, i32 noundef %1, i32 noundef %2) #0 {
  %4 = alloca ptr, align 8
  %5 = alloca i32, align 4
  %6 = alloca i32, align 4
  %7 = alloca ptr, align 8
  %8 = alloca ptr, align 8
  %9 = alloca i32, align 4
  store ptr %0, ptr %4, align 8, !tbaa !19
  store i32 %1, ptr %5, align 4, !tbaa !21
  store i32 %2, ptr %6, align 4, !tbaa !21
  call void @llvm.lifetime.start.p0(i64 8, ptr %7) #10
  call void @llvm.lifetime.start.p0(i64 8, ptr %8) #10
  call void @llvm.lifetime.start.p0(i64 4, ptr %9) #10
  %10 = load ptr, ptr %4, align 8, !tbaa !19
  %11 = getelementptr inbounds nuw %struct.DdManager, ptr %10, i32 0, i32 1
  %12 = load ptr, ptr %11, align 8, !tbaa !22
  store ptr %12, ptr %8, align 8, !tbaa !39
  %13 = load ptr, ptr %8, align 8, !tbaa !39
  call void @Cudd_Ref(ptr noundef %13)
  %14 = load i32, ptr %5, align 4, !tbaa !21
  store i32 %14, ptr %9, align 4, !tbaa !21
  br label %15

15:                                               ; preds = %33, %3
  %16 = load i32, ptr %9, align 4, !tbaa !21
  %17 = load i32, ptr %6, align 4, !tbaa !21
  %18 = icmp slt i32 %16, %17
  br i1 %18, label %19, label %36

19:                                               ; preds = %15
  %20 = load ptr, ptr %4, align 8, !tbaa !19
  %21 = load ptr, ptr %8, align 8, !tbaa !39
  store ptr %21, ptr %7, align 8, !tbaa !39
  %22 = load ptr, ptr %4, align 8, !tbaa !19
  %23 = getelementptr inbounds nuw %struct.DdManager, ptr %22, i32 0, i32 41
  %24 = load ptr, ptr %23, align 8, !tbaa !40
  %25 = load i32, ptr %9, align 4, !tbaa !21
  %26 = sext i32 %25 to i64
  %27 = getelementptr inbounds ptr, ptr %24, i64 %26
  %28 = load ptr, ptr %27, align 8, !tbaa !39
  %29 = call ptr @Cudd_bddAnd(ptr noundef %20, ptr noundef %21, ptr noundef %28)
  store ptr %29, ptr %8, align 8, !tbaa !39
  %30 = load ptr, ptr %8, align 8, !tbaa !39
  call void @Cudd_Ref(ptr noundef %30)
  %31 = load ptr, ptr %4, align 8, !tbaa !19
  %32 = load ptr, ptr %7, align 8, !tbaa !39
  call void @Cudd_RecursiveDeref(ptr noundef %31, ptr noundef %32)
  br label %33

33:                                               ; preds = %19
  %34 = load i32, ptr %9, align 4, !tbaa !21
  %35 = add nsw i32 %34, 1
  store i32 %35, ptr %9, align 4, !tbaa !21
  br label %15, !llvm.loop !41

36:                                               ; preds = %15
  %37 = load ptr, ptr %8, align 8, !tbaa !39
  call void @Cudd_Deref(ptr noundef %37)
  %38 = load ptr, ptr %8, align 8, !tbaa !39
  call void @llvm.lifetime.end.p0(i64 4, ptr %9) #10
  call void @llvm.lifetime.end.p0(i64 8, ptr %8) #10
  call void @llvm.lifetime.end.p0(i64 8, ptr %7) #10
  ret ptr %38
}